; Function Attrs: mustprogress uwtable
define { ptr, i64 } @_ZNK7rocksdb22SecondaryIndexIterator3keyEv(ptr noundef nonnull readonly align 8 captures(none) dereferenceable(64) %0) local_unnamed_addr #1 align 2 {
  %2 = getelementptr inbounds nuw i8, ptr %0, i64 8
  %3 = load ptr, ptr %2, align 8, !tbaa !32
  %4 = load ptr, ptr %3, align 8, !tbaa !38
  %5 = getelementptr inbounds nuw i8, ptr %4, i64 96
  %6 = load ptr, ptr %5, align 8
  %7 = tail call { ptr, i64 } %6(ptr noundef nonnull align 8 dereferenceable(40) %3)
  %8 = extractvalue { ptr, i64 } %7, 0
  %9 = extractvalue { ptr, i64 } %7, 1
  %10 = getelementptr inbounds nuw i8, ptr %0, i64 40
  %11 = load i64, ptr %10, align 8, !tbaa !35
  %12 = getelementptr inbounds nuw i8, ptr %8, i64 %11
  %13 = sub i64 %9, %11
  %.fca.0.insert = insertvalue { ptr, i64 } poison, ptr %12, 0
  %.fca.1.insert = insertvalue { ptr, i64 } %.fca.0.insert, i64 %13, 1
  ret { ptr, i64 } %.fca.1.insert
}